; Function Attrs: mustprogress nounwind uwtable
define dso_local range(i64 0, 8589934592) i64 @_ZNK4llvm12RISCVTTIImpl18getVScaleForTuningEv(ptr nocapture noundef nonnull readonly align 8 dereferenceable(32) %0) local_unnamed_addr #0 align 2 {
  %2 = getelementptr inbounds nuw i8, ptr %0, i64 16
  %3 = load ptr, ptr %2, align 8
  %4 = getelementptr inbounds nuw i8, ptr %3, i64 421
  %5 = load i8, ptr %4, align 1
  %6 = trunc i8 %5 to i1
  br i1 %6, label %7, label %18

7:                                                ; preds = %1
  %8 = tail call noundef i32 @_ZNK4llvm14RISCVSubtarget25getMinRVVVectorSizeInBitsEv(ptr noundef nonnull align 8 dereferenceable(409192) %3) #21
  %9 = icmp eq i32 %8, 0
  %10 = getelementptr inbounds nuw i8, ptr %3, i64 492
  %11 = load i32, ptr %10, align 4
  %12 = select i1 %9, i32 %11, i32 %8
  %13 = icmp ugt i32 %12, 63
  %14 = lshr i32 %12, 6
  %15 = select i1 %13, i64 4294967296, i64 0
  %16 = zext nneg i32 %14 to i64
  %17 = or disjoint i64 %15, %16
  br label %18

18:                                               ; preds = %7, %1
  %.sroa.0.0.insert.insert = phi i64 [ 0, %1 ], [ %17, %7 ]
  ret i64 %.sroa.0.0.insert.insert
}